#include <math.h>
#include <stdio.h>
#include <stdlib.h>
#include <string.h>


int main()
{
char *p0,*p1;
int i,j;
p0=(char *)malloc(100*sizeof(char));
p1=(char *)malloc(100*sizeof(char));
gets(p0);
for(i=0,j=0;*(p0+i)!='\0';i++)
{if(*(p0+i)!=' '&&*(p0+i+1)==' '){*(p1+j)=*(p0+i);j++;*(p1+j)=' ';j++;}
else if(*(p0+i)!=' '&&*(p0+i+1)!=' ') {*(p1+j)=*(p0+i);j++;}
    else ;}
*(p1+j)='\0';
printf("%s",p1);
return 0;}

