; ModuleID = 'source-C-CXX/61/1459.c'
source_filename = "source-C-CXX/61/1459.c"
target datalayout = "e-m:e-p270:32:32-p271:32:32-p272:64:64-i64:64-f80:128-n8:16:32:64-S128"
target triple = "x86_64-pc-linux-gnu"

@.str = private unnamed_addr constant [3 x i8] c"%s\00", align 1

; Function Attrs: nounwind sspstrong uwtable
define dso_local i32 @main() local_unnamed_addr #0 {
  %1 = tail call noalias align 16 dereferenceable_or_null(100) i8* @malloc(i64 100) #4
  %2 = tail call noalias align 16 dereferenceable_or_null(100) i8* @malloc(i64 100) #4
  %3 = tail call i32 (i8*, ...) bitcast (i32 (...)* @gets to i32 (i8*, ...)*)(i8* %1) #4
  br label %4

4:                                                ; preds = %20, %0
  %5 = phi i64 [ %22, %20 ], [ 0, %0 ]
  %6 = phi i32 [ %21, %20 ], [ 0, %0 ]
  %7 = getelementptr inbounds i8, i8* %1, i64 %5
  %8 = load i8, i8* %7, align 1, !tbaa !5
  switch i8 %8, label %9 [
    i8 0, label %23
    i8 32, label %20
  ]

9:                                                ; preds = %4
  %10 = getelementptr inbounds i8, i8* %7, i64 1
  %11 = load i8, i8* %10, align 1, !tbaa !5
  %12 = icmp eq i8 %11, 32
  %13 = sext i32 %6 to i64
  %14 = getelementptr inbounds i8, i8* %2, i64 %13
  store i8 %8, i8* %14, align 1, !tbaa !5
  %15 = add nsw i32 %6, 1
  br i1 %12, label %16, label %20

16:                                               ; preds = %9
  %17 = sext i32 %15 to i64
  %18 = getelementptr inbounds i8, i8* %2, i64 %17
  store i8 32, i8* %18, align 1, !tbaa !5
  %19 = add nsw i32 %6, 2
  br label %20

20:                                               ; preds = %9, %4, %16
  %21 = phi i32 [ %19, %16 ], [ %6, %4 ], [ %15, %9 ]
  %22 = add nuw i64 %5, 1
  br label %4, !llvm.loop !8

23:                                               ; preds = %4
  %24 = sext i32 %6 to i64
  %25 = getelementptr inbounds i8, i8* %2, i64 %24
  store i8 0, i8* %25, align 1, !tbaa !5
  %26 = tail call i32 (i8*, ...) @printf(i8* nonnull dereferenceable(1) getelementptr inbounds ([3 x i8], [3 x i8]* @.str, i64 0, i64 0), i8* %2)
  ret i32 0
}

; Function Attrs: inaccessiblememonly mustprogress nofree nounwind willreturn
declare noalias noundef align 16 i8* @malloc(i64 noundef) local_unnamed_addr #1

declare i32 @gets(...) local_unnamed_addr #2

; Function Attrs: nofree nounwind
declare noundef i32 @printf(i8* nocapture noundef readonly, ...) local_unnamed_addr #3


!llvm.module.flags = !{!0, !1, !2, !3}
!llvm.ident = !{!4}

!0 = !{i32 1, !"wchar_size", i32 4}
!1 = !{i32 7, !"PIC Level", i32 2}
!2 = !{i32 7, !"PIE Level", i32 2}
!3 = !{i32 7, !"uwtable", i32 1}
!4 = !{!"clang version 13.0.0"}
!5 = !{!6, !6, i64 0}
!6 = !{!"omnipotent char", !7, i64 0}
!7 = !{!"Simple C/C++ TBAA"}
!8 = distinct !{!8, !9}
!9 = !{!"llvm.loop.mustprogress"}
